target datalayout = "e-m:e-p270:32:32-p271:32:32-p272:64:64-i64:64-i128:128-f80:128-n8:16:32:64-S128"
target triple = "x86_64-pc-linux-gnu"

@.str.51 = private unnamed_addr constant [22 x i8] c"Lua function expected\00", align 1
@.str.52 = private unnamed_addr constant [22 x i8] c"invalid upvalue index\00", align 1

; Function Attrs: nounwind uwtable
define internal ptr @checkupval(ptr noundef %0, i32 noundef %1, i32 noundef %2, ptr noundef %3) #0 {
  %5 = alloca ptr, align 8
  %6 = alloca i32, align 4
  %7 = alloca i32, align 4
  %8 = alloca ptr, align 8
  %9 = alloca ptr, align 8
  %10 = alloca i32, align 4
  store ptr %0, ptr %5, align 8, !tbaa !4
  store i32 %1, ptr %6, align 4, !tbaa !11
  store i32 %2, ptr %7, align 4, !tbaa !11
  store ptr %3, ptr %8, align 8, !tbaa !35
  call void @llvm.lifetime.start.p0(i64 8, ptr %9) #6
  call void @llvm.lifetime.start.p0(i64 4, ptr %10) #6
  %11 = load ptr, ptr %5, align 8, !tbaa !4
  %12 = load i32, ptr %7, align 4, !tbaa !11
  %13 = call i64 @luaL_checkinteger(ptr noundef %11, i32 noundef %12)
  %14 = trunc i64 %13 to i32
  store i32 %14, ptr %10, align 4, !tbaa !11
  %15 = load ptr, ptr %5, align 8, !tbaa !4
  %16 = load i32, ptr %6, align 4, !tbaa !11
  call void @luaL_checktype(ptr noundef %15, i32 noundef %16, i32 noundef 6)
  %17 = load ptr, ptr %5, align 8, !tbaa !4
  %18 = load i32, ptr %6, align 4, !tbaa !11
  %19 = load i32, ptr %10, align 4, !tbaa !11
  %20 = call ptr @lua_upvalueid(ptr noundef %17, i32 noundef %18, i32 noundef %19)
  store ptr %20, ptr %9, align 8, !tbaa !13
  %21 = load ptr, ptr %8, align 8, !tbaa !35
  %22 = icmp ne ptr %21, null
  br i1 %22, label %23, label %39

23:                                               ; preds = %4
  %24 = load ptr, ptr %9, align 8, !tbaa !13
  %25 = icmp ne ptr %24, null
  %26 = zext i1 %25 to i32
  %27 = icmp ne i32 %26, 0
  %28 = zext i1 %27 to i32
  %29 = sext i32 %28 to i64
  %30 = call i64 @llvm.expect.i64(i64 %29, i64 1)
  %31 = icmp ne i64 %30, 0
  br i1 %31, label %36, label %32

32:                                               ; preds = %23
  %33 = load ptr, ptr %5, align 8, !tbaa !4
  %34 = load i32, ptr %7, align 4, !tbaa !11
  %35 = call i32 @luaL_argerror(ptr noundef %33, i32 noundef %34, ptr noundef @.str.52)
  br label %36

36:                                               ; preds = %32, %23
  %37 = load i32, ptr %10, align 4, !tbaa !11
  %38 = load ptr, ptr %8, align 8, !tbaa !35
  store i32 %37, ptr %38, align 4, !tbaa !11
  br label %39

39:                                               ; preds = %36, %4
  %40 = load ptr, ptr %9, align 8, !tbaa !13
  call void @llvm.lifetime.end.p0(i64 4, ptr %10) #6
  call void @llvm.lifetime.end.p0(i64 8, ptr %9) #6
  ret ptr %40
}

; Function Attrs: nounwind uwtable
define internal i32 @db_upvaluejoin(ptr noundef %0) #0 {
  %2 = alloca ptr, align 8
  %3 = alloca i32, align 4
  %4 = alloca i32, align 4
  store ptr %0, ptr %2, align 8, !tbaa !4
  call void @llvm.lifetime.start.p0(i64 4, ptr %3) #6
  call void @llvm.lifetime.start.p0(i64 4, ptr %4) #6
  %5 = load ptr, ptr %2, align 8, !tbaa !4
  %6 = call ptr @checkupval(ptr noundef %5, i32 noundef 1, i32 noundef 2, ptr noundef %3)
  %7 = load ptr, ptr %2, align 8, !tbaa !4
  %8 = call ptr @checkupval(ptr noundef %7, i32 noundef 3, i32 noundef 4, ptr noundef %4)
  %9 = load ptr, ptr %2, align 8, !tbaa !4
  %10 = call i32 @lua_iscfunction(ptr noundef %9, i32 noundef 1)
  %11 = icmp ne i32 %10, 0
  %12 = xor i1 %11, true
  %13 = zext i1 %12 to i32
  %14 = icmp ne i32 %13, 0
  %15 = zext i1 %14 to i32
  %16 = sext i32 %15 to i64
  %17 = call i64 @llvm.expect.i64(i64 %16, i64 1)
  %18 = icmp ne i64 %17, 0
  br i1 %18, label %22, label %19

19:                                               ; preds = %1
  %20 = load ptr, ptr %2, align 8, !tbaa !4
  %21 = call i32 @luaL_argerror(ptr noundef %20, i32 noundef 1, ptr noundef @.str.51)
  br label %22

22:                                               ; preds = %19, %1
  %23 = load ptr, ptr %2, align 8, !tbaa !4
  %24 = call i32 @lua_iscfunction(ptr noundef %23, i32 noundef 3)
  %25 = icmp ne i32 %24, 0
  %26 = xor i1 %25, true
  %27 = zext i1 %26 to i32
  %28 = icmp ne i32 %27, 0
  %29 = zext i1 %28 to i32
  %30 = sext i32 %29 to i64
  %31 = call i64 @llvm.expect.i64(i64 %30, i64 1)
  %32 = icmp ne i64 %31, 0
  br i1 %32, label %36, label %33

33:                                               ; preds = %22
  %34 = load ptr, ptr %2, align 8, !tbaa !4
  %35 = call i32 @luaL_argerror(ptr noundef %34, i32 noundef 3, ptr noundef @.str.51)
  br label %36

36:                                               ; preds = %33, %22
  %37 = load ptr, ptr %2, align 8, !tbaa !4
  %38 = load i32, ptr %3, align 4, !tbaa !11
  %39 = load i32, ptr %4, align 4, !tbaa !11
  call void @lua_upvaluejoin(ptr noundef %37, i32 noundef 1, i32 noundef %38, i32 noundef 3, i32 noundef %39)
  call void @llvm.lifetime.end.p0(i64 4, ptr %4) #6
  call void @llvm.lifetime.end.p0(i64 4, ptr %3) #6
  ret i32 0
}