; Function Attrs: nounwind uwtable
define internal noundef i32 @db_upvaluejoin(ptr noundef %0) #0 {
  %2 = tail call i64 @luaL_checkinteger(ptr noundef %0, i32 noundef 2) #8
  %3 = trunc i64 %2 to i32
  tail call void @luaL_checktype(ptr noundef %0, i32 noundef 1, i32 noundef 6) #8
  %4 = tail call ptr @lua_upvalueid(ptr noundef %0, i32 noundef 1, i32 noundef %3) #8
  %.not13.i = icmp eq ptr %4, null
  br i1 %.not13.i, label %5, label %checkupval.exit, !prof !9

5:                                                ; preds = %1
  %6 = tail call i32 @luaL_argerror(ptr noundef %0, i32 noundef 2, ptr noundef nonnull @.str.52) #8
  br label %checkupval.exit

checkupval.exit:                                  ; preds = %1, %5
  %7 = tail call i64 @luaL_checkinteger(ptr noundef %0, i32 noundef 4) #8
  %8 = trunc i64 %7 to i32
  tail call void @luaL_checktype(ptr noundef %0, i32 noundef 3, i32 noundef 6) #8
  %9 = tail call ptr @lua_upvalueid(ptr noundef %0, i32 noundef 3, i32 noundef %8) #8
  %.not13.i8 = icmp eq ptr %9, null
  br i1 %.not13.i8, label %10, label %checkupval.exit9, !prof !9

10:                                               ; preds = %checkupval.exit
  %11 = tail call i32 @luaL_argerror(ptr noundef %0, i32 noundef 4, ptr noundef nonnull @.str.52) #8
  br label %checkupval.exit9

checkupval.exit9:                                 ; preds = %checkupval.exit, %10
  %12 = tail call i32 @lua_iscfunction(ptr noundef %0, i32 noundef 1) #8
  %.not = icmp eq i32 %12, 0
  br i1 %.not, label %15, label %13, !prof !31

13:                                               ; preds = %checkupval.exit9
  %14 = tail call i32 @luaL_argerror(ptr noundef %0, i32 noundef 1, ptr noundef nonnull @.str.51) #8
  br label %15

15:                                               ; preds = %13, %checkupval.exit9
  %16 = tail call i32 @lua_iscfunction(ptr noundef %0, i32 noundef 3) #8
  %.not7 = icmp eq i32 %16, 0
  br i1 %.not7, label %19, label %17, !prof !31

17:                                               ; preds = %15
  %18 = tail call i32 @luaL_argerror(ptr noundef %0, i32 noundef 3, ptr noundef nonnull @.str.51) #8
  br label %19

19:                                               ; preds = %17, %15
  tail call void @lua_upvaluejoin(ptr noundef %0, i32 noundef 1, i32 noundef %3, i32 noundef 3, i32 noundef %8) #8
  ret i32 0
}